target datalayout = "e-m:e-p270:32:32-p271:32:32-p272:64:64-i64:64-i128:128-f80:128-n8:16:32:64-S128"
target triple = "x86_64-pc-linux-gnu"

%"class.Ipopt::ReferencedObject.base" = type <{ ptr, i32 }>
%"class.Ipopt::Vector" = type <{ %"class.Ipopt::TaggedObject", %"class.Ipopt::SmartPtr.32", %"class.Ipopt::CachedResults.4", i32, [4 x i8], double, i32, [4 x i8], double, i32, [4 x i8], double, i32, [4 x i8], double, i32, [4 x i8], double, i32, [4 x i8], double, i32, [4 x i8], double, i32, i8, [3 x i8] }>
%"class.Ipopt::TaggedObject" = type { %"class.Ipopt::ReferencedObject.base", %"class.Ipopt::Subject", i32, i32 }
%"class.Ipopt::Subject" = type { ptr, %"class.std::vector.27" }
%"class.std::vector.27" = type { %"struct.std::_Vector_base.28" }
%"struct.std::_Vector_base.28" = type { %"struct.std::_Vector_base<Ipopt::Observer *, std::allocator<Ipopt::Observer *>>::_Vector_impl" }
%"struct.std::_Vector_base<Ipopt::Observer *, std::allocator<Ipopt::Observer *>>::_Vector_impl" = type { %"struct.std::_Vector_base<Ipopt::Observer *, std::allocator<Ipopt::Observer *>>::_Vector_impl_data" }
%"struct.std::_Vector_base<Ipopt::Observer *, std::allocator<Ipopt::Observer *>>::_Vector_impl_data" = type { ptr, ptr, ptr }
%"class.Ipopt::SmartPtr.32" = type { ptr }
%"class.Ipopt::CachedResults.4" = type { ptr, i32, ptr }

; Function Attrs: mustprogress nounwind uwtable
define linkonce_odr noundef i32 @_ZNK5Ipopt12TaggedObject6GetTagEv(ptr noundef nonnull align 8 dereferenceable(56) %0) #5 comdat align 2 {
  %2 = alloca ptr, align 8
  store ptr %0, ptr %2, align 8, !tbaa !161
  %3 = load ptr, ptr %2, align 8
  %4 = getelementptr inbounds nuw %"class.Ipopt::TaggedObject", ptr %3, i32 0, i32 2
  %5 = load i32, ptr %4, align 8, !tbaa !163
  ret i32 %5
}

; Function Attrs: inlinehint mustprogress uwtable
define linkonce_odr void @_ZN5Ipopt6Vector15ElementWiseSqrtEv(ptr noundef nonnull align 8 dereferenceable(205) %0) #8 comdat align 2 {
  %2 = alloca ptr, align 8
  store ptr %0, ptr %2, align 8, !tbaa !51
  %3 = load ptr, ptr %2, align 8
  %4 = load ptr, ptr %3, align 8, !tbaa !8
  %5 = getelementptr inbounds ptr, ptr %4, i64 17
  %6 = load ptr, ptr %5, align 8
  call void %6(ptr noundef nonnull align 8 dereferenceable(205) %3)
  call void @_ZN5Ipopt12TaggedObject13ObjectChangedEv(ptr noundef nonnull align 8 dereferenceable(56) %3)
  ret void
}

; Function Attrs: inlinehint mustprogress uwtable
define linkonce_odr void @_ZN5Ipopt6Vector4AxpyEdRKS0_(ptr noundef nonnull align 8 dereferenceable(205) %0, double noundef %1, ptr noundef nonnull align 8 dereferenceable(205) %2) #8 comdat align 2 {
  %4 = alloca ptr, align 8
  %5 = alloca double, align 8
  %6 = alloca ptr, align 8
  store ptr %0, ptr %4, align 8, !tbaa !51
  store double %1, ptr %5, align 8, !tbaa !16
  store ptr %2, ptr %6, align 8, !tbaa !51
  %7 = load ptr, ptr %4, align 8
  %8 = load double, ptr %5, align 8, !tbaa !16
  %9 = load ptr, ptr %6, align 8, !tbaa !51
  %10 = load ptr, ptr %7, align 8, !tbaa !8
  %11 = getelementptr inbounds ptr, ptr %10, i64 4
  %12 = load ptr, ptr %11, align 8
  call void %12(ptr noundef nonnull align 8 dereferenceable(205) %7, double noundef %8, ptr noundef nonnull align 8 dereferenceable(205) %9)
  call void @_ZN5Ipopt12TaggedObject13ObjectChangedEv(ptr noundef nonnull align 8 dereferenceable(56) %7)
  ret void
}

; Function Attrs: inlinehint mustprogress uwtable
define linkonce_odr void @_ZN5Ipopt6Vector19ElementWiseMultiplyERKS0_(ptr noundef nonnull align 8 dereferenceable(205) %0, ptr noundef nonnull align 8 dereferenceable(205) %1) #8 comdat align 2 {
  %3 = alloca ptr, align 8
  %4 = alloca ptr, align 8
  store ptr %0, ptr %3, align 8, !tbaa !51
  store ptr %1, ptr %4, align 8, !tbaa !51
  %5 = load ptr, ptr %3, align 8
  %6 = load ptr, ptr %4, align 8, !tbaa !51
  %7 = load ptr, ptr %5, align 8, !tbaa !8
  %8 = getelementptr inbounds ptr, ptr %7, i64 11
  %9 = load ptr, ptr %8, align 8
  call void %9(ptr noundef nonnull align 8 dereferenceable(205) %5, ptr noundef nonnull align 8 dereferenceable(205) %6)
  call void @_ZN5Ipopt12TaggedObject13ObjectChangedEv(ptr noundef nonnull align 8 dereferenceable(56) %5)
  ret void
}

; Function Attrs: inlinehint mustprogress uwtable
define linkonce_odr void @_ZN5Ipopt6Vector4CopyERKS0_(ptr noundef nonnull align 8 dereferenceable(205) %0, ptr noundef nonnull align 8 dereferenceable(205) %1) #8 comdat align 2 {
  %3 = alloca ptr, align 8
  %4 = alloca ptr, align 8
  %5 = alloca i32, align 4
  store ptr %0, ptr %3, align 8, !tbaa !51
  store ptr %1, ptr %4, align 8, !tbaa !51
  %6 = load ptr, ptr %3, align 8
  %7 = load ptr, ptr %4, align 8, !tbaa !51
  %8 = load ptr, ptr %6, align 8, !tbaa !8
  %9 = getelementptr inbounds ptr, ptr %8, i64 2
  %10 = load ptr, ptr %9, align 8
  call void %10(ptr noundef nonnull align 8 dereferenceable(205) %6, ptr noundef nonnull align 8 dereferenceable(205) %7)
  call void @_ZN5Ipopt12TaggedObject13ObjectChangedEv(ptr noundef nonnull align 8 dereferenceable(56) %6)
  call void @llvm.lifetime.start.p0(i64 4, ptr %5) #3
  %11 = load ptr, ptr %4, align 8, !tbaa !51
  %12 = call noundef i32 @_ZNK5Ipopt12TaggedObject6GetTagEv(ptr noundef nonnull align 8 dereferenceable(56) %11)
  store i32 %12, ptr %5, align 4, !tbaa !60
  %13 = load i32, ptr %5, align 4, !tbaa !60
  %14 = load ptr, ptr %4, align 8, !tbaa !51
  %15 = getelementptr inbounds nuw %"class.Ipopt::Vector", ptr %14, i32 0, i32 3
  %16 = load i32, ptr %15, align 8, !tbaa !62
  %17 = icmp eq i32 %13, %16
  br i1 %17, label %18, label %25

18:                                               ; preds = %2
  %19 = call noundef i32 @_ZNK5Ipopt12TaggedObject6GetTagEv(ptr noundef nonnull align 8 dereferenceable(56) %6)
  %20 = getelementptr inbounds nuw %"class.Ipopt::Vector", ptr %6, i32 0, i32 3
  store i32 %19, ptr %20, align 8, !tbaa !62
  %21 = load ptr, ptr %4, align 8, !tbaa !51
  %22 = getelementptr inbounds nuw %"class.Ipopt::Vector", ptr %21, i32 0, i32 5
  %23 = load double, ptr %22, align 8, !tbaa !78
  %24 = getelementptr inbounds nuw %"class.Ipopt::Vector", ptr %6, i32 0, i32 5
  store double %23, ptr %24, align 8, !tbaa !78
  br label %25

25:                                               ; preds = %18, %2
  %26 = load i32, ptr %5, align 4, !tbaa !60
  %27 = load ptr, ptr %4, align 8, !tbaa !51
  %28 = getelementptr inbounds nuw %"class.Ipopt::Vector", ptr %27, i32 0, i32 6
  %29 = load i32, ptr %28, align 8, !tbaa !79
  %30 = icmp eq i32 %26, %29
  br i1 %30, label %31, label %38

31:                                               ; preds = %25
  %32 = call noundef i32 @_ZNK5Ipopt12TaggedObject6GetTagEv(ptr noundef nonnull align 8 dereferenceable(56) %6)
  %33 = getelementptr inbounds nuw %"class.Ipopt::Vector", ptr %6, i32 0, i32 6
  store i32 %32, ptr %33, align 8, !tbaa !79
  %34 = load ptr, ptr %4, align 8, !tbaa !51
  %35 = getelementptr inbounds nuw %"class.Ipopt::Vector", ptr %34, i32 0, i32 8
  %36 = load double, ptr %35, align 8, !tbaa !80
  %37 = getelementptr inbounds nuw %"class.Ipopt::Vector", ptr %6, i32 0, i32 8
  store double %36, ptr %37, align 8, !tbaa !80
  br label %38

38:                                               ; preds = %31, %25
  %39 = load i32, ptr %5, align 4, !tbaa !60
  %40 = load ptr, ptr %4, align 8, !tbaa !51
  %41 = getelementptr inbounds nuw %"class.Ipopt::Vector", ptr %40, i32 0, i32 9
  %42 = load i32, ptr %41, align 8, !tbaa !81
  %43 = icmp eq i32 %39, %42
  br i1 %43, label %44, label %51

44:                                               ; preds = %38
  %45 = call noundef i32 @_ZNK5Ipopt12TaggedObject6GetTagEv(ptr noundef nonnull align 8 dereferenceable(56) %6)
  %46 = getelementptr inbounds nuw %"class.Ipopt::Vector", ptr %6, i32 0, i32 9
  store i32 %45, ptr %46, align 8, !tbaa !81
  %47 = load ptr, ptr %4, align 8, !tbaa !51
  %48 = getelementptr inbounds nuw %"class.Ipopt::Vector", ptr %47, i32 0, i32 11
  %49 = load double, ptr %48, align 8, !tbaa !82
  %50 = getelementptr inbounds nuw %"class.Ipopt::Vector", ptr %6, i32 0, i32 11
  store double %49, ptr %50, align 8, !tbaa !82
  br label %51

51:                                               ; preds = %44, %38
  %52 = load i32, ptr %5, align 4, !tbaa !60
  %53 = load ptr, ptr %4, align 8, !tbaa !51
  %54 = getelementptr inbounds nuw %"class.Ipopt::Vector", ptr %53, i32 0, i32 12
  %55 = load i32, ptr %54, align 8, !tbaa !83
  %56 = icmp eq i32 %52, %55
  br i1 %56, label %57, label %64

57:                                               ; preds = %51
  %58 = call noundef i32 @_ZNK5Ipopt12TaggedObject6GetTagEv(ptr noundef nonnull align 8 dereferenceable(56) %6)
  %59 = getelementptr inbounds nuw %"class.Ipopt::Vector", ptr %6, i32 0, i32 12
  store i32 %58, ptr %59, align 8, !tbaa !83
  %60 = load ptr, ptr %4, align 8, !tbaa !51
  %61 = getelementptr inbounds nuw %"class.Ipopt::Vector", ptr %60, i32 0, i32 14
  %62 = load double, ptr %61, align 8, !tbaa !84
  %63 = getelementptr inbounds nuw %"class.Ipopt::Vector", ptr %6, i32 0, i32 14
  store double %62, ptr %63, align 8, !tbaa !84
  br label %64

64:                                               ; preds = %57, %51
  %65 = load i32, ptr %5, align 4, !tbaa !60
  %66 = load ptr, ptr %4, align 8, !tbaa !51
  %67 = getelementptr inbounds nuw %"class.Ipopt::Vector", ptr %66, i32 0, i32 15
  %68 = load i32, ptr %67, align 8, !tbaa !85
  %69 = icmp eq i32 %65, %68
  br i1 %69, label %70, label %77

70:                                               ; preds = %64
  %71 = call noundef i32 @_ZNK5Ipopt12TaggedObject6GetTagEv(ptr noundef nonnull align 8 dereferenceable(56) %6)
  %72 = getelementptr inbounds nuw %"class.Ipopt::Vector", ptr %6, i32 0, i32 15
  store i32 %71, ptr %72, align 8, !tbaa !85
  %73 = load ptr, ptr %4, align 8, !tbaa !51
  %74 = getelementptr inbounds nuw %"class.Ipopt::Vector", ptr %73, i32 0, i32 17
  %75 = load double, ptr %74, align 8, !tbaa !86
  %76 = getelementptr inbounds nuw %"class.Ipopt::Vector", ptr %6, i32 0, i32 17
  store double %75, ptr %76, align 8, !tbaa !86
  br label %77

77:                                               ; preds = %70, %64
  %78 = load i32, ptr %5, align 4, !tbaa !60
  %79 = load ptr, ptr %4, align 8, !tbaa !51
  %80 = getelementptr inbounds nuw %"class.Ipopt::Vector", ptr %79, i32 0, i32 18
  %81 = load i32, ptr %80, align 8, !tbaa !87
  %82 = icmp eq i32 %78, %81
  br i1 %82, label %83, label %90

83:                                               ; preds = %77
  %84 = call noundef i32 @_ZNK5Ipopt12TaggedObject6GetTagEv(ptr noundef nonnull align 8 dereferenceable(56) %6)
  %85 = getelementptr inbounds nuw %"class.Ipopt::Vector", ptr %6, i32 0, i32 18
  store i32 %84, ptr %85, align 8, !tbaa !87
  %86 = load ptr, ptr %4, align 8, !tbaa !51
  %87 = getelementptr inbounds nuw %"class.Ipopt::Vector", ptr %86, i32 0, i32 20
  %88 = load double, ptr %87, align 8, !tbaa !88
  %89 = getelementptr inbounds nuw %"class.Ipopt::Vector", ptr %6, i32 0, i32 20
  store double %88, ptr %89, align 8, !tbaa !88
  br label %90

90:                                               ; preds = %83, %77
  %91 = load i32, ptr %5, align 4, !tbaa !60
  %92 = load ptr, ptr %4, align 8, !tbaa !51
  %93 = getelementptr inbounds nuw %"class.Ipopt::Vector", ptr %92, i32 0, i32 21
  %94 = load i32, ptr %93, align 8, !tbaa !89
  %95 = icmp eq i32 %91, %94
  br i1 %95, label %96, label %103

96:                                               ; preds = %90
  %97 = call noundef i32 @_ZNK5Ipopt12TaggedObject6GetTagEv(ptr noundef nonnull align 8 dereferenceable(56) %6)
  %98 = getelementptr inbounds nuw %"class.Ipopt::Vector", ptr %6, i32 0, i32 21
  store i32 %97, ptr %98, align 8, !tbaa !89
  %99 = load ptr, ptr %4, align 8, !tbaa !51
  %100 = getelementptr inbounds nuw %"class.Ipopt::Vector", ptr %99, i32 0, i32 23
  %101 = load double, ptr %100, align 8, !tbaa !90
  %102 = getelementptr inbounds nuw %"class.Ipopt::Vector", ptr %6, i32 0, i32 23
  store double %101, ptr %102, align 8, !tbaa !90
  br label %103

103:                                              ; preds = %96, %90
  call void @llvm.lifetime.end.p0(i64 4, ptr %5) #3
  ret void
}

; Function Attrs: mustprogress uwtable
define void @_ZN5Ipopt21RestoRestorationPhase15solve_quadraticERKNS_6VectorES3_RS1_(ptr noundef nonnull align 8 dereferenceable(49) %0, ptr noundef nonnull align 8 dereferenceable(205) %1, ptr noundef nonnull align 8 dereferenceable(205) %2, ptr noundef nonnull align 8 dereferenceable(205) %3) #4 align 2 {
  %5 = alloca ptr, align 8
  %6 = alloca ptr, align 8
  %7 = alloca ptr, align 8
  %8 = alloca ptr, align 8
  store ptr %0, ptr %5, align 8, !tbaa !3
  store ptr %1, ptr %6, align 8, !tbaa !51
  store ptr %2, ptr %7, align 8, !tbaa !51
  store ptr %3, ptr %8, align 8, !tbaa !51
  %9 = load ptr, ptr %8, align 8, !tbaa !51
  %10 = load ptr, ptr %6, align 8, !tbaa !51
  call void @_ZN5Ipopt6Vector4CopyERKS0_(ptr noundef nonnull align 8 dereferenceable(205) %9, ptr noundef nonnull align 8 dereferenceable(205) %10)
  %11 = load ptr, ptr %8, align 8, !tbaa !51
  %12 = load ptr, ptr %6, align 8, !tbaa !51
  call void @_ZN5Ipopt6Vector19ElementWiseMultiplyERKS0_(ptr noundef nonnull align 8 dereferenceable(205) %11, ptr noundef nonnull align 8 dereferenceable(205) %12)
  %13 = load ptr, ptr %8, align 8, !tbaa !51
  %14 = load ptr, ptr %7, align 8, !tbaa !51
  call void @_ZN5Ipopt6Vector4AxpyEdRKS0_(ptr noundef nonnull align 8 dereferenceable(205) %13, double noundef 1.000000e+00, ptr noundef nonnull align 8 dereferenceable(205) %14)
  %15 = load ptr, ptr %8, align 8, !tbaa !51
  call void @_ZN5Ipopt6Vector15ElementWiseSqrtEv(ptr noundef nonnull align 8 dereferenceable(205) %15)
  %16 = load ptr, ptr %8, align 8, !tbaa !51
  %17 = load ptr, ptr %6, align 8, !tbaa !51
  call void @_ZN5Ipopt6Vector4AxpyEdRKS0_(ptr noundef nonnull align 8 dereferenceable(205) %16, double noundef 1.000000e+00, ptr noundef nonnull align 8 dereferenceable(205) %17)
  ret void
}